target datalayout = "e-m:e-p270:32:32-p271:32:32-p272:64:64-i64:64-i128:128-f80:128-n8:16:32:64-S128"
target triple = "x86_64-pc-linux-gnu"

%struct.ASN1_ITEM_st = type opaque
%struct.X509_sig_st = type { ptr, ptr }
%struct.asn1_string_st = type { i32, i32, ptr, i64 }

@PKCS8_PRIV_KEY_INFO_it = external constant %struct.ASN1_ITEM_st, align 1
@.str = private unnamed_addr constant [124 x i8] c"generated/home/dtcxzyw/WorkSpace/Projects/compilers/llvm-opt-benchmark/bench/libquic/libquic/boringssl/crypto/pkcs8/pkcs8.c\00", align 1

; Function Attrs: nounwind uwtable
define internal ptr @pkcs12_item_i2d_encrypt(ptr noundef %0, ptr noundef %1, ptr noundef %2, i64 noundef %3, ptr noundef %4) #0 {
  %6 = alloca ptr, align 8
  %7 = alloca ptr, align 8
  %8 = alloca ptr, align 8
  %9 = alloca ptr, align 8
  %10 = alloca i64, align 8
  %11 = alloca ptr, align 8
  %12 = alloca ptr, align 8
  %13 = alloca ptr, align 8
  %14 = alloca i32, align 4
  %15 = alloca i64, align 8
  %16 = alloca i32, align 4
  store ptr %0, ptr %7, align 8, !tbaa !36
  store ptr %1, ptr %8, align 8, !tbaa !37
  store ptr %2, ptr %9, align 8, !tbaa !11
  store i64 %3, ptr %10, align 8, !tbaa !15
  store ptr %4, ptr %11, align 8, !tbaa !43
  call void @llvm.lifetime.start.p0(i64 8, ptr %12) #8
  call void @llvm.lifetime.start.p0(i64 8, ptr %13) #8
  store ptr null, ptr %13, align 8, !tbaa !11
  call void @llvm.lifetime.start.p0(i64 4, ptr %14) #8
  call void @llvm.lifetime.start.p0(i64 8, ptr %15) #8
  %17 = call ptr @ASN1_STRING_type_new(i32 noundef 4)
  store ptr %17, ptr %12, align 8, !tbaa !39
  %18 = load ptr, ptr %12, align 8, !tbaa !39
  %19 = icmp eq ptr %18, null
  br i1 %19, label %20, label %21

20:                                               ; preds = %5
  call void @ERR_put_error(i32 noundef 19, i32 noundef 0, i32 noundef 65, ptr noundef @.str, i32 noundef 524)
  store ptr null, ptr %6, align 8
  store i32 1, ptr %16, align 4
  br label %51

21:                                               ; preds = %5
  %22 = load ptr, ptr %11, align 8, !tbaa !43
  %23 = load ptr, ptr %8, align 8, !tbaa !37
  %24 = call i32 @ASN1_item_i2d(ptr noundef %22, ptr noundef %13, ptr noundef %23)
  store i32 %24, ptr %14, align 4, !tbaa !13
  %25 = load ptr, ptr %13, align 8, !tbaa !11
  %26 = icmp ne ptr %25, null
  br i1 %26, label %28, label %27

27:                                               ; preds = %21
  call void @ERR_put_error(i32 noundef 19, i32 noundef 0, i32 noundef 105, ptr noundef @.str, i32 noundef 529)
  store ptr null, ptr %6, align 8
  store i32 1, ptr %16, align 4
  br label %51

28:                                               ; preds = %21
  %29 = load ptr, ptr %7, align 8, !tbaa !36
  %30 = load ptr, ptr %9, align 8, !tbaa !11
  %31 = load i64, ptr %10, align 8, !tbaa !15
  %32 = load ptr, ptr %13, align 8, !tbaa !11
  %33 = load i32, ptr %14, align 4, !tbaa !13
  %34 = sext i32 %33 to i64
  %35 = load ptr, ptr %12, align 8, !tbaa !39
  %36 = getelementptr inbounds nuw %struct.asn1_string_st, ptr %35, i32 0, i32 2
  %37 = call i32 @pbe_crypt(ptr noundef %29, ptr noundef %30, i64 noundef %31, ptr noundef %32, i64 noundef %34, ptr noundef %36, ptr noundef %15, i32 noundef 1)
  %38 = icmp ne i32 %37, 0
  br i1 %38, label %41, label %39

39:                                               ; preds = %28
  call void @ERR_put_error(i32 noundef 19, i32 noundef 0, i32 noundef 106, ptr noundef @.str, i32 noundef 534)
  %40 = load ptr, ptr %13, align 8, !tbaa !11
  call void @free(ptr noundef %40) #8
  store ptr null, ptr %6, align 8
  store i32 1, ptr %16, align 4
  br label %51

41:                                               ; preds = %28
  %42 = load i64, ptr %15, align 8, !tbaa !15
  %43 = trunc i64 %42 to i32
  %44 = load ptr, ptr %12, align 8, !tbaa !39
  %45 = getelementptr inbounds nuw %struct.asn1_string_st, ptr %44, i32 0, i32 0
  store i32 %43, ptr %45, align 8, !tbaa !42
  %46 = load ptr, ptr %13, align 8, !tbaa !11
  %47 = load i32, ptr %14, align 4, !tbaa !13
  %48 = sext i32 %47 to i64
  call void @OPENSSL_cleanse(ptr noundef %46, i64 noundef %48)
  %49 = load ptr, ptr %13, align 8, !tbaa !11
  call void @free(ptr noundef %49) #8
  %50 = load ptr, ptr %12, align 8, !tbaa !39
  store ptr %50, ptr %6, align 8
  store i32 1, ptr %16, align 4
  br label %51

51:                                               ; preds = %41, %39, %27, %20
  call void @llvm.lifetime.end.p0(i64 8, ptr %15) #8
  call void @llvm.lifetime.end.p0(i64 4, ptr %14) #8
  call void @llvm.lifetime.end.p0(i64 8, ptr %13) #8
  call void @llvm.lifetime.end.p0(i64 8, ptr %12) #8
  %52 = load ptr, ptr %6, align 8
  ret ptr %52
}

; Function Attrs: nounwind uwtable
define hidden ptr @PKCS8_encrypt_pbe(i32 noundef %0, ptr noundef %1, ptr noundef %2, i64 noundef %3, ptr noundef %4, i64 noundef %5, i32 noundef %6, ptr noundef %7) #0 {
  %9 = alloca ptr, align 8
  %10 = alloca i32, align 4
  %11 = alloca ptr, align 8
  %12 = alloca ptr, align 8
  %13 = alloca i64, align 8
  %14 = alloca ptr, align 8
  %15 = alloca i64, align 8
  %16 = alloca i32, align 4
  %17 = alloca ptr, align 8
  %18 = alloca ptr, align 8
  %19 = alloca ptr, align 8
  %20 = alloca i32, align 4
  store i32 %0, ptr %10, align 4, !tbaa !13
  store ptr %1, ptr %11, align 8, !tbaa !44
  store ptr %2, ptr %12, align 8, !tbaa !11
  store i64 %3, ptr %13, align 8, !tbaa !15
  store ptr %4, ptr %14, align 8, !tbaa !11
  store i64 %5, ptr %15, align 8, !tbaa !15
  store i32 %6, ptr %16, align 4, !tbaa !13
  store ptr %7, ptr %17, align 8, !tbaa !25
  call void @llvm.lifetime.start.p0(i64 8, ptr %18) #8
  store ptr null, ptr %18, align 8, !tbaa !6
  call void @llvm.lifetime.start.p0(i64 8, ptr %19) #8
  %21 = call ptr @X509_SIG_new()
  store ptr %21, ptr %18, align 8, !tbaa !6
  %22 = load ptr, ptr %18, align 8, !tbaa !6
  %23 = icmp eq ptr %22, null
  br i1 %23, label %24, label %25

24:                                               ; preds = %8
  call void @ERR_put_error(i32 noundef 19, i32 noundef 0, i32 noundef 65, ptr noundef @.str, i32 noundef 572)
  br label %70

25:                                               ; preds = %8
  %26 = load i32, ptr %10, align 4, !tbaa !13
  %27 = icmp eq i32 %26, -1
  br i1 %27, label %28, label %35

28:                                               ; preds = %25
  %29 = load ptr, ptr %11, align 8, !tbaa !44
  %30 = load i32, ptr %16, align 4, !tbaa !13
  %31 = load ptr, ptr %14, align 8, !tbaa !11
  %32 = load i64, ptr %15, align 8, !tbaa !15
  %33 = trunc i64 %32 to i32
  %34 = call ptr @PKCS5_pbe2_set(ptr noundef %29, i32 noundef %30, ptr noundef %31, i32 noundef %33)
  store ptr %34, ptr %19, align 8, !tbaa !36
  br label %42

35:                                               ; preds = %25
  %36 = load i32, ptr %10, align 4, !tbaa !13
  %37 = load i32, ptr %16, align 4, !tbaa !13
  %38 = load ptr, ptr %14, align 8, !tbaa !11
  %39 = load i64, ptr %15, align 8, !tbaa !15
  %40 = trunc i64 %39 to i32
  %41 = call ptr @PKCS5_pbe_set(i32 noundef %36, i32 noundef %37, ptr noundef %38, i32 noundef %40)
  store ptr %41, ptr %19, align 8, !tbaa !36
  br label %42

42:                                               ; preds = %35, %28
  %43 = load ptr, ptr %19, align 8, !tbaa !36
  %44 = icmp ne ptr %43, null
  br i1 %44, label %46, label %45

45:                                               ; preds = %42
  call void @ERR_put_error(i32 noundef 19, i32 noundef 0, i32 noundef 12, ptr noundef @.str, i32 noundef 582)
  br label %70

46:                                               ; preds = %42
  %47 = load ptr, ptr %18, align 8, !tbaa !6
  %48 = getelementptr inbounds nuw %struct.X509_sig_st, ptr %47, i32 0, i32 0
  %49 = load ptr, ptr %48, align 8, !tbaa !17
  call void @X509_ALGOR_free(ptr noundef %49)
  %50 = load ptr, ptr %19, align 8, !tbaa !36
  %51 = load ptr, ptr %18, align 8, !tbaa !6
  %52 = getelementptr inbounds nuw %struct.X509_sig_st, ptr %51, i32 0, i32 0
  store ptr %50, ptr %52, align 8, !tbaa !17
  %53 = load ptr, ptr %18, align 8, !tbaa !6
  %54 = getelementptr inbounds nuw %struct.X509_sig_st, ptr %53, i32 0, i32 1
  %55 = load ptr, ptr %54, align 8, !tbaa !35
  call void @ASN1_STRING_free(ptr noundef %55)
  %56 = load ptr, ptr %19, align 8, !tbaa !36
  %57 = load ptr, ptr %12, align 8, !tbaa !11
  %58 = load i64, ptr %13, align 8, !tbaa !15
  %59 = load ptr, ptr %17, align 8, !tbaa !25
  %60 = call ptr @pkcs12_item_i2d_encrypt(ptr noundef %56, ptr noundef @PKCS8_PRIV_KEY_INFO_it, ptr noundef %57, i64 noundef %58, ptr noundef %59)
  %61 = load ptr, ptr %18, align 8, !tbaa !6
  %62 = getelementptr inbounds nuw %struct.X509_sig_st, ptr %61, i32 0, i32 1
  store ptr %60, ptr %62, align 8, !tbaa !35
  %63 = load ptr, ptr %18, align 8, !tbaa !6
  %64 = getelementptr inbounds nuw %struct.X509_sig_st, ptr %63, i32 0, i32 1
  %65 = load ptr, ptr %64, align 8, !tbaa !35
  %66 = icmp ne ptr %65, null
  br i1 %66, label %68, label %67

67:                                               ; preds = %46
  call void @ERR_put_error(i32 noundef 19, i32 noundef 0, i32 noundef 106, ptr noundef @.str, i32 noundef 592)
  br label %70

68:                                               ; preds = %46
  %69 = load ptr, ptr %18, align 8, !tbaa !6
  store ptr %69, ptr %9, align 8
  store i32 1, ptr %20, align 4
  br label %72

70:                                               ; preds = %67, %45, %24
  %71 = load ptr, ptr %18, align 8, !tbaa !6
  call void @X509_SIG_free(ptr noundef %71)
  store ptr null, ptr %9, align 8
  store i32 1, ptr %20, align 4
  br label %72

72:                                               ; preds = %70, %68
  call void @llvm.lifetime.end.p0(i64 8, ptr %19) #8
  call void @llvm.lifetime.end.p0(i64 8, ptr %18) #8
  %73 = load ptr, ptr %9, align 8
  ret ptr %73
}