; Function Attrs: nounwind uwtable
define hidden ptr @PKCS8_encrypt_pbe(i32 noundef %0, ptr noundef %1, ptr noundef %2, i64 noundef %3, ptr noundef %4, i64 noundef %5, i32 noundef %6, ptr noundef %7) local_unnamed_addr #0 {
  %9 = alloca ptr, align 8
  %10 = alloca i64, align 8
  %11 = tail call ptr @X509_SIG_new() #12
  %12 = icmp eq ptr %11, null
  br i1 %12, label %13, label %14

13:                                               ; preds = %8
  tail call void @ERR_put_error(i32 noundef 19, i32 noundef 0, i32 noundef 65, ptr noundef nonnull @.str, i32 noundef 572) #12
  br label %45

14:                                               ; preds = %8
  %15 = icmp eq i32 %0, -1
  %16 = trunc i64 %5 to i32
  br i1 %15, label %17, label %19

17:                                               ; preds = %14
  %18 = tail call ptr @PKCS5_pbe2_set(ptr noundef %1, i32 noundef %6, ptr noundef %4, i32 noundef %16) #12
  br label %21

19:                                               ; preds = %14
  %20 = tail call ptr @PKCS5_pbe_set(i32 noundef %0, i32 noundef %6, ptr noundef %4, i32 noundef %16) #12
  br label %21

21:                                               ; preds = %19, %17
  %.0 = phi ptr [ %18, %17 ], [ %20, %19 ]
  %.not = icmp eq ptr %.0, null
  br i1 %.not, label %22, label %23

22:                                               ; preds = %21
  tail call void @ERR_put_error(i32 noundef 19, i32 noundef 0, i32 noundef 12, ptr noundef nonnull @.str, i32 noundef 582) #12
  br label %45

23:                                               ; preds = %21
  %24 = load ptr, ptr %11, align 8, !tbaa !13
  tail call void @X509_ALGOR_free(ptr noundef %24) #12
  store ptr %.0, ptr %11, align 8, !tbaa !13
  %25 = getelementptr inbounds nuw i8, ptr %11, i64 8
  %26 = load ptr, ptr %25, align 8, !tbaa !29
  tail call void @ASN1_STRING_free(ptr noundef %26) #12
  call void @llvm.lifetime.start.p0(i64 8, ptr nonnull %9) #12
  store ptr null, ptr %9, align 8, !tbaa !6
  call void @llvm.lifetime.start.p0(i64 8, ptr nonnull %10) #12
  %27 = tail call ptr @ASN1_STRING_type_new(i32 noundef 4) #12
  %28 = icmp eq ptr %27, null
  br i1 %28, label %29, label %30

29:                                               ; preds = %23
  tail call void @ERR_put_error(i32 noundef 19, i32 noundef 0, i32 noundef 65, ptr noundef nonnull @.str, i32 noundef 524) #12
  br label %44

30:                                               ; preds = %23
  %31 = call i32 @ASN1_item_i2d(ptr noundef %7, ptr noundef nonnull %9, ptr noundef nonnull @PKCS8_PRIV_KEY_INFO_it) #12
  %32 = load ptr, ptr %9, align 8, !tbaa !6
  %.not.i = icmp eq ptr %32, null
  br i1 %.not.i, label %33, label %34

33:                                               ; preds = %30
  call void @ERR_put_error(i32 noundef 19, i32 noundef 0, i32 noundef 105, ptr noundef nonnull @.str, i32 noundef 529) #12
  br label %44

34:                                               ; preds = %30
  %35 = sext i32 %31 to i64
  %36 = getelementptr inbounds nuw i8, ptr %27, i64 8
  %37 = call fastcc i32 @pbe_crypt(ptr noundef nonnull readonly %.0, ptr noundef %2, i64 noundef %3, ptr noundef nonnull %32, i64 noundef %35, ptr noundef %36, ptr noundef %10, i32 noundef 1)
  %.not13.i = icmp eq i32 %37, 0
  br i1 %.not13.i, label %38, label %pkcs12_item_i2d_encrypt.exit

38:                                               ; preds = %34
  call void @ERR_put_error(i32 noundef 19, i32 noundef 0, i32 noundef 106, ptr noundef nonnull @.str, i32 noundef 534) #12
  %39 = load ptr, ptr %9, align 8, !tbaa !6
  call void @free(ptr noundef %39) #12
  br label %44

pkcs12_item_i2d_encrypt.exit:                     ; preds = %34
  %40 = load i64, ptr %10, align 8, !tbaa !11
  %41 = trunc i64 %40 to i32
  store i32 %41, ptr %27, align 8, !tbaa !30
  %42 = load ptr, ptr %9, align 8, !tbaa !6
  call void @OPENSSL_cleanse(ptr noundef %42, i64 noundef %35) #12
  %43 = load ptr, ptr %9, align 8, !tbaa !6
  call void @free(ptr noundef %43) #12
  call void @llvm.lifetime.end.p0(i64 8, ptr nonnull %10) #12
  call void @llvm.lifetime.end.p0(i64 8, ptr nonnull %9) #12
  store ptr %27, ptr %25, align 8, !tbaa !29
  br label %46

44:                                               ; preds = %29, %38, %33
  call void @llvm.lifetime.end.p0(i64 8, ptr nonnull %10) #12
  call void @llvm.lifetime.end.p0(i64 8, ptr nonnull %9) #12
  store ptr null, ptr %25, align 8, !tbaa !29
  call void @ERR_put_error(i32 noundef 19, i32 noundef 0, i32 noundef 106, ptr noundef nonnull @.str, i32 noundef 592) #12
  br label %45

45:                                               ; preds = %44, %22, %13
  call void @X509_SIG_free(ptr noundef %11) #12
  br label %46

46:                                               ; preds = %pkcs12_item_i2d_encrypt.exit, %45
  %.023 = phi ptr [ null, %45 ], [ %11, %pkcs12_item_i2d_encrypt.exit ]
  ret ptr %.023
}